; Function Attrs: mustprogress nounwind uwtable
define noalias ptr @mi_new_nothrow(i64 noundef %0) local_unnamed_addr #3 personality ptr @__gxx_personality_v0 {
  %2 = tail call align 8 ptr @llvm.threadlocal.address.p0(ptr align 8 @_mi_heap_default)
  %3 = load ptr, ptr %2, align 8, !tbaa !33
  %4 = icmp ult i64 %0, 1025
  br i1 %4, label %5, label %mi_malloc.exit, !prof !23

5:                                                ; preds = %1
  %6 = add nuw nsw i64 %0, 7
  %7 = lshr i64 %6, 3
  %8 = getelementptr inbounds nuw i8, ptr %3, i64 248
  %9 = getelementptr inbounds nuw [129 x ptr], ptr %8, i64 0, i64 %7
  %10 = load ptr, ptr %9, align 8, !tbaa !35
  %11 = getelementptr inbounds nuw i8, ptr %10, i64 16
  %12 = load ptr, ptr %11, align 8, !tbaa !31
  %13 = icmp eq ptr %12, null
  br i1 %13, label %mi_malloc.exit, label %mi_malloc.exit.thread, !prof !17

mi_malloc.exit.thread:                            ; preds = %5
  %.val.i.i.i.i.i.i = load i64, ptr %12, align 8, !tbaa !20
  %14 = inttoptr i64 %.val.i.i.i.i.i.i to ptr
  store ptr %14, ptr %11, align 8, !tbaa !31
  %15 = getelementptr inbounds nuw i8, ptr %10, i64 32
  %16 = load i16, ptr %15, align 8, !tbaa !22
  %17 = add i16 %16, 1
  store i16 %17, ptr %15, align 8, !tbaa !22
  br label %22

mi_malloc.exit:                                   ; preds = %1, %5
  %18 = tail call noalias noundef ptr @_Z18_mi_malloc_genericP9mi_heap_smbm(ptr noundef %3, i64 noundef %0, i1 noundef zeroext false, i64 noundef 0) #55
  %19 = icmp eq ptr %18, null
  br i1 %19, label %20, label %22, !prof !53

20:                                               ; preds = %mi_malloc.exit
  %21 = invoke fastcc noundef ptr @_ZL10mi_try_newmb(i64 noundef %0)
          to label %22 unwind label %23

22:                                               ; preds = %20, %mi_malloc.exit.thread, %mi_malloc.exit
  %.0 = phi ptr [ %21, %20 ], [ %18, %mi_malloc.exit ], [ %12, %mi_malloc.exit.thread ]
  ret ptr %.0

23:                                               ; preds = %20
  %24 = landingpad { ptr, i32 }
          catch ptr null
  %25 = extractvalue { ptr, i32 } %24, 0
  tail call void @__clang_call_terminate(ptr %25) #56
  unreachable
}